target datalayout = "e-m:e-p270:32:32-p271:32:32-p272:64:64-i64:64-i128:128-f80:128-n8:16:32:64-S128"
target triple = "x86_64-pc-linux-gnu"

%"class.pxrInternal_v0_24__pxrReserved__::GfVec3i" = type { [3 x i32] }
%"struct.__gnu_cxx::__ops::_Iter_comp_iter" = type { i8 }
%"struct.__gnu_cxx::__ops::_Iter_comp_val" = type { i8 }

; Function Attrs: mustprogress nounwind uwtable
define linkonce_odr noundef nonnull align 4 dereferenceable(4) ptr @_ZNK32pxrInternal_v0_24__pxrReserved__7GfVec3iixEm(ptr noundef nonnull align 4 dereferenceable(12) %0, i64 noundef %1) #2 comdat align 2 {
  %3 = alloca ptr, align 8
  %4 = alloca i64, align 8
  store ptr %0, ptr %3, align 8
  store i64 %1, ptr %4, align 8
  %5 = load ptr, ptr %3, align 8
  %6 = getelementptr inbounds nuw %"class.pxrInternal_v0_24__pxrReserved__::GfVec3i", ptr %5, i32 0, i32 0
  %7 = load i64, ptr %4, align 8
  %8 = getelementptr inbounds [3 x i32], ptr %6, i64 0, i64 %7
  ret ptr %8
}

; Function Attrs: mustprogress uwtable
define internal noundef zeroext i1 @_ZN9__gnu_cxx5__ops14_Iter_comp_valIN32pxrInternal_v0_24__pxrReserved__12_GLOBAL__N_19_Vec3iCmpEEclIPNS2_7GfVec3iES7_EEbT_RT0_(ptr noundef nonnull align 1 dereferenceable(1) %0, ptr noundef %1, ptr noundef nonnull align 4 dereferenceable(12) %2) #0 align 2 {
  %4 = alloca ptr, align 8
  %5 = alloca ptr, align 8
  %6 = alloca ptr, align 8
  store ptr %0, ptr %4, align 8
  store ptr %1, ptr %5, align 8
  store ptr %2, ptr %6, align 8
  %7 = load ptr, ptr %4, align 8
  %8 = load ptr, ptr %5, align 8
  %9 = load ptr, ptr %6, align 8
  %10 = call noundef zeroext i1 @_ZN32pxrInternal_v0_24__pxrReserved__12_GLOBAL__N_19_Vec3iCmpclERKNS_7GfVec3iES4_(ptr noundef nonnull align 1 dereferenceable(1) %7, ptr noundef nonnull align 4 dereferenceable(12) %8, ptr noundef nonnull align 4 dereferenceable(12) %9)
  ret i1 %10
}

; Function Attrs: mustprogress nounwind uwtable
define internal noundef zeroext i1 @_ZN32pxrInternal_v0_24__pxrReserved__12_GLOBAL__N_19_Vec3iCmpclERKNS_7GfVec3iES4_(ptr noundef nonnull align 1 dereferenceable(1) %0, ptr noundef nonnull align 4 dereferenceable(12) %1, ptr noundef nonnull align 4 dereferenceable(12) %2) #2 align 2 {
  %4 = alloca i1, align 1
  %5 = alloca ptr, align 8
  %6 = alloca ptr, align 8
  %7 = alloca ptr, align 8
  store ptr %0, ptr %5, align 8
  store ptr %1, ptr %6, align 8
  store ptr %2, ptr %7, align 8
  %8 = load ptr, ptr %6, align 8
  %9 = call noundef nonnull align 4 dereferenceable(4) ptr @_ZNK32pxrInternal_v0_24__pxrReserved__7GfVec3iixEm(ptr noundef nonnull align 4 dereferenceable(12) %8, i64 noundef 0)
  %10 = load i32, ptr %9, align 4
  %11 = load ptr, ptr %7, align 8
  %12 = call noundef nonnull align 4 dereferenceable(4) ptr @_ZNK32pxrInternal_v0_24__pxrReserved__7GfVec3iixEm(ptr noundef nonnull align 4 dereferenceable(12) %11, i64 noundef 0)
  %13 = load i32, ptr %12, align 4
  %14 = icmp eq i32 %10, %13
  br i1 %14, label %15, label %39

15:                                               ; preds = %3
  %16 = load ptr, ptr %6, align 8
  %17 = call noundef nonnull align 4 dereferenceable(4) ptr @_ZNK32pxrInternal_v0_24__pxrReserved__7GfVec3iixEm(ptr noundef nonnull align 4 dereferenceable(12) %16, i64 noundef 1)
  %18 = load i32, ptr %17, align 4
  %19 = load ptr, ptr %7, align 8
  %20 = call noundef nonnull align 4 dereferenceable(4) ptr @_ZNK32pxrInternal_v0_24__pxrReserved__7GfVec3iixEm(ptr noundef nonnull align 4 dereferenceable(12) %19, i64 noundef 1)
  %21 = load i32, ptr %20, align 4
  %22 = icmp eq i32 %18, %21
  br i1 %22, label %23, label %31

23:                                               ; preds = %15
  %24 = load ptr, ptr %6, align 8
  %25 = call noundef nonnull align 4 dereferenceable(4) ptr @_ZNK32pxrInternal_v0_24__pxrReserved__7GfVec3iixEm(ptr noundef nonnull align 4 dereferenceable(12) %24, i64 noundef 2)
  %26 = load i32, ptr %25, align 4
  %27 = load ptr, ptr %7, align 8
  %28 = call noundef nonnull align 4 dereferenceable(4) ptr @_ZNK32pxrInternal_v0_24__pxrReserved__7GfVec3iixEm(ptr noundef nonnull align 4 dereferenceable(12) %27, i64 noundef 2)
  %29 = load i32, ptr %28, align 4
  %30 = icmp slt i32 %26, %29
  store i1 %30, ptr %4, align 1
  br label %47

31:                                               ; preds = %15
  %32 = load ptr, ptr %6, align 8
  %33 = call noundef nonnull align 4 dereferenceable(4) ptr @_ZNK32pxrInternal_v0_24__pxrReserved__7GfVec3iixEm(ptr noundef nonnull align 4 dereferenceable(12) %32, i64 noundef 1)
  %34 = load i32, ptr %33, align 4
  %35 = load ptr, ptr %7, align 8
  %36 = call noundef nonnull align 4 dereferenceable(4) ptr @_ZNK32pxrInternal_v0_24__pxrReserved__7GfVec3iixEm(ptr noundef nonnull align 4 dereferenceable(12) %35, i64 noundef 1)
  %37 = load i32, ptr %36, align 4
  %38 = icmp slt i32 %34, %37
  store i1 %38, ptr %4, align 1
  br label %47

39:                                               ; preds = %3
  %40 = load ptr, ptr %6, align 8
  %41 = call noundef nonnull align 4 dereferenceable(4) ptr @_ZNK32pxrInternal_v0_24__pxrReserved__7GfVec3iixEm(ptr noundef nonnull align 4 dereferenceable(12) %40, i64 noundef 0)
  %42 = load i32, ptr %41, align 4
  %43 = load ptr, ptr %7, align 8
  %44 = call noundef nonnull align 4 dereferenceable(4) ptr @_ZNK32pxrInternal_v0_24__pxrReserved__7GfVec3iixEm(ptr noundef nonnull align 4 dereferenceable(12) %43, i64 noundef 0)
  %45 = load i32, ptr %44, align 4
  %46 = icmp slt i32 %42, %45
  store i1 %46, ptr %4, align 1
  br label %47

47:                                               ; preds = %39, %31, %23
  %48 = load i1, ptr %4, align 1
  ret i1 %48
}

; Function Attrs: mustprogress uwtable
define internal void @_ZSt11__push_heapIPN32pxrInternal_v0_24__pxrReserved__7GfVec3iElS1_N9__gnu_cxx5__ops14_Iter_comp_valINS0_12_GLOBAL__N_19_Vec3iCmpEEEEvT_T0_SA_T1_RT2_(ptr noundef %0, i64 noundef %1, i64 noundef %2, i64 %3, i32 %4, ptr noundef nonnull align 1 dereferenceable(1) %5) #0 {
  %7 = alloca %"class.pxrInternal_v0_24__pxrReserved__::GfVec3i", align 4
  %8 = alloca { i64, i32 }, align 4
  %9 = alloca ptr, align 8
  %10 = alloca i64, align 8
  %11 = alloca i64, align 8
  %12 = alloca ptr, align 8
  %13 = alloca i64, align 8
  %14 = getelementptr inbounds nuw { i64, i32 }, ptr %8, i32 0, i32 0
  store i64 %3, ptr %14, align 4
  %15 = getelementptr inbounds nuw { i64, i32 }, ptr %8, i32 0, i32 1
  store i32 %4, ptr %15, align 4
  call void @llvm.memcpy.p0.p0.i64(ptr align 4 %7, ptr align 4 %8, i64 12, i1 false)
  store ptr %0, ptr %9, align 8
  store i64 %1, ptr %10, align 8
  store i64 %2, ptr %11, align 8
  store ptr %5, ptr %12, align 8
  %16 = load i64, ptr %10, align 8
  %17 = sub nsw i64 %16, 1
  %18 = sdiv i64 %17, 2
  store i64 %18, ptr %13, align 8
  br label %19

19:                                               ; preds = %31, %6
  %20 = load i64, ptr %10, align 8
  %21 = load i64, ptr %11, align 8
  %22 = icmp sgt i64 %20, %21
  br i1 %22, label %23, label %29

23:                                               ; preds = %19
  %24 = load ptr, ptr %12, align 8
  %25 = load ptr, ptr %9, align 8
  %26 = load i64, ptr %13, align 8
  %27 = getelementptr inbounds %"class.pxrInternal_v0_24__pxrReserved__::GfVec3i", ptr %25, i64 %26
  %28 = call noundef zeroext i1 @_ZN9__gnu_cxx5__ops14_Iter_comp_valIN32pxrInternal_v0_24__pxrReserved__12_GLOBAL__N_19_Vec3iCmpEEclIPNS2_7GfVec3iES7_EEbT_RT0_(ptr noundef nonnull align 1 dereferenceable(1) %24, ptr noundef %27, ptr noundef nonnull align 4 dereferenceable(12) %7)
  br label %29

29:                                               ; preds = %23, %19
  %30 = phi i1 [ false, %19 ], [ %28, %23 ]
  br i1 %30, label %31, label %42

31:                                               ; preds = %29
  %32 = load ptr, ptr %9, align 8
  %33 = load i64, ptr %13, align 8
  %34 = getelementptr inbounds %"class.pxrInternal_v0_24__pxrReserved__::GfVec3i", ptr %32, i64 %33
  %35 = load ptr, ptr %9, align 8
  %36 = load i64, ptr %10, align 8
  %37 = getelementptr inbounds %"class.pxrInternal_v0_24__pxrReserved__::GfVec3i", ptr %35, i64 %36
  call void @llvm.memcpy.p0.p0.i64(ptr align 4 %37, ptr align 4 %34, i64 12, i1 false)
  %38 = load i64, ptr %13, align 8
  store i64 %38, ptr %10, align 8
  %39 = load i64, ptr %10, align 8
  %40 = sub nsw i64 %39, 1
  %41 = sdiv i64 %40, 2
  store i64 %41, ptr %13, align 8
  br label %19, !llvm.loop !23

42:                                               ; preds = %29
  %43 = load ptr, ptr %9, align 8
  %44 = load i64, ptr %10, align 8
  %45 = getelementptr inbounds %"class.pxrInternal_v0_24__pxrReserved__::GfVec3i", ptr %43, i64 %44
  call void @llvm.memcpy.p0.p0.i64(ptr align 4 %45, ptr align 4 %7, i64 12, i1 false)
  ret void
}

; Function Attrs: mustprogress nounwind uwtable
define internal void @_ZN9__gnu_cxx5__ops14_Iter_comp_valIN32pxrInternal_v0_24__pxrReserved__12_GLOBAL__N_19_Vec3iCmpEEC2EONS0_15_Iter_comp_iterIS4_EE(ptr noundef nonnull align 1 dereferenceable(1) %0, ptr noundef nonnull align 1 dereferenceable(1) %1) unnamed_addr #2 align 2 {
  %3 = alloca ptr, align 8
  %4 = alloca ptr, align 8
  store ptr %0, ptr %3, align 8
  store ptr %1, ptr %4, align 8
  ret void
}

; Function Attrs: mustprogress nounwind uwtable
define internal noundef zeroext i1 @_ZN9__gnu_cxx5__ops15_Iter_comp_iterIN32pxrInternal_v0_24__pxrReserved__12_GLOBAL__N_19_Vec3iCmpEEclIPNS2_7GfVec3iES8_EEbT_T0_(ptr noundef nonnull align 1 dereferenceable(1) %0, ptr noundef %1, ptr noundef %2) #2 align 2 {
  %4 = alloca ptr, align 8
  %5 = alloca ptr, align 8
  %6 = alloca ptr, align 8
  store ptr %0, ptr %4, align 8
  store ptr %1, ptr %5, align 8
  store ptr %2, ptr %6, align 8
  %7 = load ptr, ptr %4, align 8
  %8 = load ptr, ptr %5, align 8
  %9 = load ptr, ptr %6, align 8
  %10 = call noundef zeroext i1 @_ZN32pxrInternal_v0_24__pxrReserved__12_GLOBAL__N_19_Vec3iCmpclERKNS_7GfVec3iES4_(ptr noundef nonnull align 1 dereferenceable(1) %7, ptr noundef nonnull align 4 dereferenceable(12) %8, ptr noundef nonnull align 4 dereferenceable(12) %9)
  ret i1 %10
}

; Function Attrs: mustprogress uwtable
define internal void @_ZSt13__adjust_heapIPN32pxrInternal_v0_24__pxrReserved__7GfVec3iElS1_N9__gnu_cxx5__ops15_Iter_comp_iterINS0_12_GLOBAL__N_19_Vec3iCmpEEEEvT_T0_SA_T1_T2_(ptr noundef %0, i64 noundef %1, i64 noundef %2, i64 %3, i32 %4) #0 {
  %6 = alloca %"class.pxrInternal_v0_24__pxrReserved__::GfVec3i", align 4
  %7 = alloca { i64, i32 }, align 4
  %8 = alloca %"struct.__gnu_cxx::__ops::_Iter_comp_iter", align 1
  %9 = alloca ptr, align 8
  %10 = alloca i64, align 8
  %11 = alloca i64, align 8
  %12 = alloca i64, align 8
  %13 = alloca i64, align 8
  %14 = alloca %"struct.__gnu_cxx::__ops::_Iter_comp_val", align 1
  %15 = alloca %"class.pxrInternal_v0_24__pxrReserved__::GfVec3i", align 4
  %16 = alloca { i64, i32 }, align 4
  %17 = getelementptr inbounds nuw { i64, i32 }, ptr %7, i32 0, i32 0
  store i64 %3, ptr %17, align 4
  %18 = getelementptr inbounds nuw { i64, i32 }, ptr %7, i32 0, i32 1
  store i32 %4, ptr %18, align 4
  call void @llvm.memcpy.p0.p0.i64(ptr align 4 %6, ptr align 4 %7, i64 12, i1 false)
  store ptr %0, ptr %9, align 8
  store i64 %1, ptr %10, align 8
  store i64 %2, ptr %11, align 8
  %19 = load i64, ptr %10, align 8
  store i64 %19, ptr %12, align 8
  %20 = load i64, ptr %10, align 8
  store i64 %20, ptr %13, align 8
  br label %21

21:                                               ; preds = %42, %5
  %22 = load i64, ptr %13, align 8
  %23 = load i64, ptr %11, align 8
  %24 = sub nsw i64 %23, 1
  %25 = sdiv i64 %24, 2
  %26 = icmp slt i64 %22, %25
  br i1 %26, label %27, label %50

27:                                               ; preds = %21
  %28 = load i64, ptr %13, align 8
  %29 = add nsw i64 %28, 1
  %30 = mul nsw i64 2, %29
  store i64 %30, ptr %13, align 8
  %31 = load ptr, ptr %9, align 8
  %32 = load i64, ptr %13, align 8
  %33 = getelementptr inbounds %"class.pxrInternal_v0_24__pxrReserved__::GfVec3i", ptr %31, i64 %32
  %34 = load ptr, ptr %9, align 8
  %35 = load i64, ptr %13, align 8
  %36 = sub nsw i64 %35, 1
  %37 = getelementptr inbounds %"class.pxrInternal_v0_24__pxrReserved__::GfVec3i", ptr %34, i64 %36
  %38 = call noundef zeroext i1 @_ZN9__gnu_cxx5__ops15_Iter_comp_iterIN32pxrInternal_v0_24__pxrReserved__12_GLOBAL__N_19_Vec3iCmpEEclIPNS2_7GfVec3iES8_EEbT_T0_(ptr noundef nonnull align 1 dereferenceable(1) %8, ptr noundef %33, ptr noundef %37)
  br i1 %38, label %39, label %42

39:                                               ; preds = %27
  %40 = load i64, ptr %13, align 8
  %41 = add nsw i64 %40, -1
  store i64 %41, ptr %13, align 8
  br label %42

42:                                               ; preds = %39, %27
  %43 = load ptr, ptr %9, align 8
  %44 = load i64, ptr %13, align 8
  %45 = getelementptr inbounds %"class.pxrInternal_v0_24__pxrReserved__::GfVec3i", ptr %43, i64 %44
  %46 = load ptr, ptr %9, align 8
  %47 = load i64, ptr %10, align 8
  %48 = getelementptr inbounds %"class.pxrInternal_v0_24__pxrReserved__::GfVec3i", ptr %46, i64 %47
  call void @llvm.memcpy.p0.p0.i64(ptr align 4 %48, ptr align 4 %45, i64 12, i1 false)
  %49 = load i64, ptr %13, align 8
  store i64 %49, ptr %10, align 8
  br label %21, !llvm.loop !22

50:                                               ; preds = %21
  %51 = load i64, ptr %11, align 8
  %52 = and i64 %51, 1
  %53 = icmp eq i64 %52, 0
  br i1 %53, label %54, label %73

54:                                               ; preds = %50
  %55 = load i64, ptr %13, align 8
  %56 = load i64, ptr %11, align 8
  %57 = sub nsw i64 %56, 2
  %58 = sdiv i64 %57, 2
  %59 = icmp eq i64 %55, %58
  br i1 %59, label %60, label %73

60:                                               ; preds = %54
  %61 = load i64, ptr %13, align 8
  %62 = add nsw i64 %61, 1
  %63 = mul nsw i64 2, %62
  store i64 %63, ptr %13, align 8
  %64 = load ptr, ptr %9, align 8
  %65 = load i64, ptr %13, align 8
  %66 = sub nsw i64 %65, 1
  %67 = getelementptr inbounds %"class.pxrInternal_v0_24__pxrReserved__::GfVec3i", ptr %64, i64 %66
  %68 = load ptr, ptr %9, align 8
  %69 = load i64, ptr %10, align 8
  %70 = getelementptr inbounds %"class.pxrInternal_v0_24__pxrReserved__::GfVec3i", ptr %68, i64 %69
  call void @llvm.memcpy.p0.p0.i64(ptr align 4 %70, ptr align 4 %67, i64 12, i1 false)
  %71 = load i64, ptr %13, align 8
  %72 = sub nsw i64 %71, 1
  store i64 %72, ptr %10, align 8
  br label %73

73:                                               ; preds = %60, %54, %50
  call void @_ZN9__gnu_cxx5__ops14_Iter_comp_valIN32pxrInternal_v0_24__pxrReserved__12_GLOBAL__N_19_Vec3iCmpEEC2EONS0_15_Iter_comp_iterIS4_EE(ptr noundef nonnull align 1 dereferenceable(1) %14, ptr noundef nonnull align 1 dereferenceable(1) %8)
  %74 = load ptr, ptr %9, align 8
  %75 = load i64, ptr %10, align 8
  %76 = load i64, ptr %12, align 8
  call void @llvm.memcpy.p0.p0.i64(ptr align 4 %15, ptr align 4 %6, i64 12, i1 false)
  call void @llvm.memcpy.p0.p0.i64(ptr align 4 %16, ptr align 4 %15, i64 12, i1 false)
  %77 = getelementptr inbounds nuw { i64, i32 }, ptr %16, i32 0, i32 0
  %78 = load i64, ptr %77, align 4
  %79 = getelementptr inbounds nuw { i64, i32 }, ptr %16, i32 0, i32 1
  %80 = load i32, ptr %79, align 4
  call void @_ZSt11__push_heapIPN32pxrInternal_v0_24__pxrReserved__7GfVec3iElS1_N9__gnu_cxx5__ops14_Iter_comp_valINS0_12_GLOBAL__N_19_Vec3iCmpEEEEvT_T0_SA_T1_RT2_(ptr noundef %74, i64 noundef %75, i64 noundef %76, i64 %78, i32 %80, ptr noundef nonnull align 1 dereferenceable(1) %14)
  ret void
}